target datalayout = "e-m:e-p270:32:32-p271:32:32-p272:64:64-i64:64-i128:128-f80:128-n8:16:32:64-S128"
target triple = "x86_64-pc-linux-gnu"

%struct.mbim_conv_info = type { ptr, ptr, i32, i32, i32 }

@hf_mbim_ms_slot_id = internal global i32 0, align 4
@hf_mbim_ms_reset_pass_through_action = internal global i32 0, align 4
@preferred_mbim_extended_version = internal global i32 1, align 4

; Function Attrs: nounwind uwtable
define internal void @mbim_dissect_ms_set_reset(ptr noundef %0, ptr noundef %1, i32 noundef %2, ptr noundef %3) #0 {
  %5 = alloca ptr, align 8
  %6 = alloca ptr, align 8
  %7 = alloca i32, align 4
  %8 = alloca ptr, align 8
  store ptr %0, ptr %5, align 8
  store ptr %1, ptr %6, align 8
  store i32 %2, ptr %7, align 4
  store ptr %3, ptr %8, align 8
  %9 = load ptr, ptr %6, align 8
  %10 = load i32, ptr @hf_mbim_ms_reset_pass_through_action, align 4
  %11 = load ptr, ptr %5, align 8
  %12 = load i32, ptr %7, align 4
  %13 = call ptr @proto_tree_add_item(ptr noundef %9, i32 noundef %10, ptr noundef %11, i32 noundef %12, i32 noundef 4, i32 noundef -2147483648)
  %14 = load i32, ptr %7, align 4
  %15 = add i32 %14, 4
  store i32 %15, ptr %7, align 4
  %16 = load ptr, ptr %8, align 8
  %17 = getelementptr inbounds %struct.mbim_conv_info, ptr %16, i32 0, i32 4
  %18 = load i32, ptr %17, align 8
  %19 = icmp uge i32 %18, 4
  br i1 %19, label %28, label %20

20:                                               ; preds = %4
  %21 = load ptr, ptr %8, align 8
  %22 = getelementptr inbounds %struct.mbim_conv_info, ptr %21, i32 0, i32 4
  %23 = load i32, ptr %22, align 8
  %24 = icmp eq i32 %23, 0
  br i1 %24, label %25, label %29

25:                                               ; preds = %20
  %26 = load i32, ptr @preferred_mbim_extended_version, align 4
  %27 = icmp sge i32 %26, 4
  br i1 %27, label %28, label %29

28:                                               ; preds = %25, %4
  br i1 true, label %30, label %36

29:                                               ; preds = %25, %20
  br i1 false, label %30, label %36

30:                                               ; preds = %29, %28
  %31 = load ptr, ptr %6, align 8
  %32 = load i32, ptr @hf_mbim_ms_slot_id, align 4
  %33 = load ptr, ptr %5, align 8
  %34 = load i32, ptr %7, align 4
  %35 = call ptr @proto_tree_add_item(ptr noundef %31, i32 noundef %32, ptr noundef %33, i32 noundef %34, i32 noundef 4, i32 noundef -2147483648)
  br label %36

36:                                               ; preds = %30, %29, %28
  ret void
}