; Function Attrs: nounwind uwtable
define internal fastcc void @mbim_dissect_ms_set_reset(ptr noundef %0, ptr noundef %1, i32 noundef %2, ptr noundef readonly captures(none) %3) unnamed_addr #0 {
  %5 = load i32, ptr @hf_mbim_ms_reset_pass_through_action, align 4
  %6 = tail call ptr @proto_tree_add_item(ptr noundef %1, i32 noundef %5, ptr noundef %0, i32 noundef %2, i32 noundef 4, i32 noundef -2147483648) #10
  %7 = add i32 %2, 4
  %8 = getelementptr inbounds nuw i8, ptr %3, i64 24
  %9 = load i32, ptr %8, align 8
  %10 = icmp ugt i32 %9, 3
  br i1 %10, label %15, label %11

11:                                               ; preds = %4
  %12 = icmp eq i32 %9, 0
  %13 = load i32, ptr @preferred_mbim_extended_version, align 4
  %14 = icmp sgt i32 %13, 3
  %or.cond = select i1 %12, i1 %14, i1 false
  br i1 %or.cond, label %15, label %18

15:                                               ; preds = %4, %11
  %16 = load i32, ptr @hf_mbim_ms_slot_id, align 4
  %17 = tail call ptr @proto_tree_add_item(ptr noundef %1, i32 noundef %16, ptr noundef %0, i32 noundef %7, i32 noundef 4, i32 noundef -2147483648) #10
  br label %18

18:                                               ; preds = %11, %15
  ret void
}